target datalayout = "e-m:e-p270:32:32-p271:32:32-p272:64:64-i64:64-i128:128-f80:128-n8:16:32:64-S128"
target triple = "x86_64-pc-linux-gnu"

%struct.DdManager = type { %struct.DdNode, ptr, ptr, ptr, ptr, ptr, ptr, ptr, i32, i32, double, double, double, i32, i32, i32, i32, i32, i32, ptr, ptr, %struct.DdSubtable, i32, i32, i32, i32, i32, i32, i32, double, i32, i32, i32, ptr, i64, double, i32, ptr, ptr, ptr, ptr, ptr, ptr, ptr, i32, ptr, ptr, ptr, ptr, ptr, ptr, i32, i32, i32, double, i32, i32, i32, i32, double, double, i32, i32, i32, i32, i32, i32, i32, i32, i32, ptr, ptr, i32, i32, i32, i32, i32, i32, ptr, ptr, ptr, ptr, ptr, ptr, ptr, ptr, i32, i64, i64, i64, i32, i64, i64, double, double, double, double, double, double, i32, ptr, ptr, i64 }
%struct.DdNode = type { i32, i32, ptr, %union.anon, i64 }
%union.anon = type { %struct.DdChildren }
%struct.DdChildren = type { ptr, ptr }
%struct.DdSubtable = type { ptr, i32, i32, i32, i32, i32, i32, i32, i32, i32, i32, i32 }

; Function Attrs: nounwind uwtable
define i32 @Cudd_BddToCubeArray(ptr noundef %0, ptr noundef %1, ptr noundef %2) #0 {
  %4 = alloca i32, align 4
  %5 = alloca ptr, align 8
  %6 = alloca ptr, align 8
  %7 = alloca ptr, align 8
  %8 = alloca ptr, align 8
  %9 = alloca ptr, align 8
  %10 = alloca ptr, align 8
  %11 = alloca i32, align 4
  %12 = alloca i32, align 4
  %13 = alloca ptr, align 8
  %14 = alloca i32, align 4
  store ptr %0, ptr %5, align 8
  store ptr %1, ptr %6, align 8
  store ptr %2, ptr %7, align 8
  %15 = load ptr, ptr %5, align 8
  %16 = call i32 @Cudd_ReadSize(ptr noundef %15)
  store i32 %16, ptr %12, align 4
  %17 = load ptr, ptr %5, align 8
  %18 = getelementptr inbounds %struct.DdManager, ptr %17, i32 0, i32 1
  %19 = load ptr, ptr %18, align 8
  %20 = ptrtoint ptr %19 to i64
  %21 = xor i64 %20, 1
  %22 = inttoptr i64 %21 to ptr
  store ptr %22, ptr %13, align 8
  %23 = load i32, ptr %12, align 4
  %24 = sub nsw i32 %23, 1
  store i32 %24, ptr %11, align 4
  br label %25

25:                                               ; preds = %33, %3
  %26 = load i32, ptr %11, align 4
  %27 = icmp sge i32 %26, 0
  br i1 %27, label %28, label %36

28:                                               ; preds = %25
  %29 = load ptr, ptr %7, align 8
  %30 = load i32, ptr %11, align 4
  %31 = sext i32 %30 to i64
  %32 = getelementptr inbounds i32, ptr %29, i64 %31
  store i32 2, ptr %32, align 4
  br label %33

33:                                               ; preds = %28
  %34 = load i32, ptr %11, align 4
  %35 = add nsw i32 %34, -1
  store i32 %35, ptr %11, align 4
  br label %25, !llvm.loop !9

36:                                               ; preds = %25
  %37 = load ptr, ptr %6, align 8
  store ptr %37, ptr %8, align 8
  br label %38

38:                                               ; preds = %76, %36
  %39 = load ptr, ptr %8, align 8
  %40 = ptrtoint ptr %39 to i64
  %41 = and i64 %40, -2
  %42 = inttoptr i64 %41 to ptr
  %43 = getelementptr inbounds %struct.DdNode, ptr %42, i32 0, i32 0
  %44 = load i32, ptr %43, align 8
  %45 = icmp eq i32 %44, 2147483647
  %46 = xor i1 %45, true
  br i1 %46, label %47, label %77

47:                                               ; preds = %38
  %48 = load ptr, ptr %8, align 8
  %49 = ptrtoint ptr %48 to i64
  %50 = and i64 %49, -2
  %51 = inttoptr i64 %50 to ptr
  %52 = getelementptr inbounds %struct.DdNode, ptr %51, i32 0, i32 0
  %53 = load i32, ptr %52, align 8
  store i32 %53, ptr %14, align 4
  %54 = load ptr, ptr %8, align 8
  call void @cuddGetBranches(ptr noundef %54, ptr noundef %9, ptr noundef %10)
  %55 = load ptr, ptr %9, align 8
  %56 = load ptr, ptr %13, align 8
  %57 = icmp eq ptr %55, %56
  br i1 %57, label %58, label %64

58:                                               ; preds = %47
  %59 = load ptr, ptr %7, align 8
  %60 = load i32, ptr %14, align 4
  %61 = sext i32 %60 to i64
  %62 = getelementptr inbounds i32, ptr %59, i64 %61
  store i32 0, ptr %62, align 4
  %63 = load ptr, ptr %10, align 8
  store ptr %63, ptr %8, align 8
  br label %76

64:                                               ; preds = %47
  %65 = load ptr, ptr %10, align 8
  %66 = load ptr, ptr %13, align 8
  %67 = icmp eq ptr %65, %66
  br i1 %67, label %68, label %74

68:                                               ; preds = %64
  %69 = load ptr, ptr %7, align 8
  %70 = load i32, ptr %14, align 4
  %71 = sext i32 %70 to i64
  %72 = getelementptr inbounds i32, ptr %69, i64 %71
  store i32 1, ptr %72, align 4
  %73 = load ptr, ptr %9, align 8
  store ptr %73, ptr %8, align 8
  br label %75

74:                                               ; preds = %64
  store i32 0, ptr %4, align 4
  br label %83

75:                                               ; preds = %68
  br label %76

76:                                               ; preds = %75, %58
  br label %38, !llvm.loop !10

77:                                               ; preds = %38
  %78 = load ptr, ptr %8, align 8
  %79 = load ptr, ptr %13, align 8
  %80 = icmp eq ptr %78, %79
  br i1 %80, label %81, label %82

81:                                               ; preds = %77
  store i32 0, ptr %4, align 4
  br label %83

82:                                               ; preds = %77
  store i32 1, ptr %4, align 4
  br label %83

83:                                               ; preds = %82, %81, %74
  %84 = load i32, ptr %4, align 4
  ret i32 %84
}