; Function Attrs: nounwind uwtable
define range(i32 0, 2) i32 @Cudd_BddToCubeArray(ptr noundef %0, ptr noundef %1, ptr noundef writeonly captures(none) %2) local_unnamed_addr #0 {
  %4 = alloca ptr, align 8
  %5 = alloca ptr, align 8
  %6 = tail call i32 @Cudd_ReadSize(ptr noundef %0) #23
  %7 = getelementptr inbounds nuw i8, ptr %0, i64 40
  %8 = load ptr, ptr %7, align 8
  %9 = ptrtoint ptr %8 to i64
  %10 = xor i64 %9, 1
  %11 = inttoptr i64 %10 to ptr
  %12 = icmp sgt i32 %6, 0
  br i1 %12, label %.lr.ph.preheader, label %.preheader

.lr.ph.preheader:                                 ; preds = %3
  %13 = zext nneg i32 %6 to i64
  br label %.lr.ph

.preheader:                                       ; preds = %.lr.ph, %3
  %14 = ptrtoint ptr %1 to i64
  %15 = and i64 %14, -2
  %16 = inttoptr i64 %15 to ptr
  %17 = load i32, ptr %16, align 8
  %.not24 = icmp eq i32 %17, 2147483647
  br i1 %.not24, label %._crit_edge, label %.lr.ph26

.lr.ph:                                           ; preds = %.lr.ph.preheader, %.lr.ph
  %indvars.iv = phi i64 [ %13, %.lr.ph.preheader ], [ %indvars.iv.next, %.lr.ph ]
  %indvars.iv.next = add nsw i64 %indvars.iv, -1
  %18 = getelementptr inbounds nuw i32, ptr %2, i64 %indvars.iv.next
  store i32 2, ptr %18, align 4
  %19 = icmp samesign ugt i64 %indvars.iv, 1
  br i1 %19, label %.lr.ph, label %.preheader, !llvm.loop !7

.lr.ph26:                                         ; preds = %.preheader, %32
  %20 = phi i32 [ %36, %32 ], [ %17, %.preheader ]
  %.01925 = phi ptr [ %.1, %32 ], [ %1, %.preheader ]
  call void @cuddGetBranches(ptr noundef %.01925, ptr noundef nonnull %4, ptr noundef nonnull %5) #23
  %21 = load ptr, ptr %4, align 8
  %22 = icmp eq ptr %21, %11
  br i1 %22, label %23, label %26

23:                                               ; preds = %.lr.ph26
  %24 = sext i32 %20 to i64
  %25 = getelementptr inbounds i32, ptr %2, i64 %24
  store i32 0, ptr %25, align 4
  %.1.pre = load ptr, ptr %5, align 8
  br label %32

26:                                               ; preds = %.lr.ph26
  %27 = load ptr, ptr %5, align 8
  %28 = icmp eq ptr %27, %11
  br i1 %28, label %29, label %.loopexit

29:                                               ; preds = %26
  %30 = sext i32 %20 to i64
  %31 = getelementptr inbounds i32, ptr %2, i64 %30
  store i32 1, ptr %31, align 4
  br label %32

32:                                               ; preds = %29, %23
  %.1 = phi ptr [ %.1.pre, %23 ], [ %21, %29 ]
  %33 = ptrtoint ptr %.1 to i64
  %34 = and i64 %33, -2
  %35 = inttoptr i64 %34 to ptr
  %36 = load i32, ptr %35, align 8
  %.not = icmp eq i32 %36, 2147483647
  br i1 %.not, label %._crit_edge, label %.lr.ph26, !llvm.loop !8

._crit_edge:                                      ; preds = %32, %.preheader
  %.019.lcssa = phi ptr [ %1, %.preheader ], [ %.1, %32 ]
  %37 = icmp ne ptr %.019.lcssa, %11
  %. = zext i1 %37 to i32
  br label %.loopexit

.loopexit:                                        ; preds = %26, %._crit_edge
  %.0 = phi i32 [ %., %._crit_edge ], [ 0, %26 ]
  ret i32 %.0
}